target datalayout = "e-m:e-p270:32:32-p271:32:32-p272:64:64-i64:64-i128:128-f80:128-n8:16:32:64-S128"
target triple = "x86_64-pc-linux-gnu"

%struct.Qureg = type { i32, i32, i32, i64, i64, i32, i32, %struct.ComplexArray, %struct.ComplexArray, %struct.ComplexArray, ptr, ptr, ptr, ptr, ptr, ptr }
%struct.ComplexArray = type { ptr, ptr }
%struct.QASMLogger = type { ptr, i32, i32, i32 }
%struct.Complex = type { double, double }

; Function Attrs: nounwind uwtable
define void @qasm_recordCompactUnitary(ptr noundef byval(%struct.Qureg) align 8 %0, double %1, double %2, double %3, double %4, i32 noundef %5) #0 {
  %7 = alloca %struct.Complex, align 8
  %8 = alloca %struct.Complex, align 8
  %9 = alloca i32, align 4
  %10 = alloca double, align 8
  %11 = alloca double, align 8
  %12 = alloca double, align 8
  %13 = alloca [3 x double], align 16
  %14 = getelementptr inbounds nuw { double, double }, ptr %7, i32 0, i32 0
  store double %1, ptr %14, align 8
  %15 = getelementptr inbounds nuw { double, double }, ptr %7, i32 0, i32 1
  store double %2, ptr %15, align 8
  %16 = getelementptr inbounds nuw { double, double }, ptr %8, i32 0, i32 0
  store double %3, ptr %16, align 8
  %17 = getelementptr inbounds nuw { double, double }, ptr %8, i32 0, i32 1
  store double %4, ptr %17, align 8
  store i32 %5, ptr %9, align 4, !tbaa !25
  %18 = getelementptr inbounds nuw %struct.Qureg, ptr %0, i32 0, i32 15
  %19 = load ptr, ptr %18, align 8, !tbaa !10
  %20 = getelementptr inbounds nuw %struct.QASMLogger, ptr %19, i32 0, i32 3
  %21 = load i32, ptr %20, align 8, !tbaa !17
  %22 = icmp ne i32 %21, 0
  br i1 %22, label %24, label %23

23:                                               ; preds = %6
  br label %40

24:                                               ; preds = %6
  call void @llvm.lifetime.start.p0(i64 8, ptr %10) #7
  call void @llvm.lifetime.start.p0(i64 8, ptr %11) #7
  call void @llvm.lifetime.start.p0(i64 8, ptr %12) #7
  %25 = getelementptr inbounds nuw { double, double }, ptr %7, i32 0, i32 0
  %26 = load double, ptr %25, align 8
  %27 = getelementptr inbounds nuw { double, double }, ptr %7, i32 0, i32 1
  %28 = load double, ptr %27, align 8
  %29 = getelementptr inbounds nuw { double, double }, ptr %8, i32 0, i32 0
  %30 = load double, ptr %29, align 8
  %31 = getelementptr inbounds nuw { double, double }, ptr %8, i32 0, i32 1
  %32 = load double, ptr %31, align 8
  call void @getZYZRotAnglesFromComplexPair(double %26, double %28, double %30, double %32, ptr noundef %10, ptr noundef %11, ptr noundef %12)
  call void @llvm.lifetime.start.p0(i64 24, ptr %13) #7
  %33 = load double, ptr %10, align 8, !tbaa !29
  store double %33, ptr %13, align 8, !tbaa !29
  %34 = getelementptr inbounds double, ptr %13, i64 1
  %35 = load double, ptr %11, align 8, !tbaa !29
  store double %35, ptr %34, align 8, !tbaa !29
  %36 = getelementptr inbounds double, ptr %13, i64 2
  %37 = load double, ptr %12, align 8, !tbaa !29
  store double %37, ptr %36, align 8, !tbaa !29
  %38 = load i32, ptr %9, align 4, !tbaa !25
  %39 = getelementptr inbounds [3 x double], ptr %13, i64 0, i64 0
  call void @addGateToQASM(ptr noundef byval(%struct.Qureg) align 8 %0, i32 noundef 10, ptr noundef null, i32 noundef 0, i32 noundef %38, ptr noundef %39, i32 noundef 3)
  call void @llvm.lifetime.end.p0(i64 24, ptr %13) #7
  call void @llvm.lifetime.end.p0(i64 8, ptr %12) #7
  call void @llvm.lifetime.end.p0(i64 8, ptr %11) #7
  call void @llvm.lifetime.end.p0(i64 8, ptr %10) #7
  br label %40

40:                                               ; preds = %24, %23
  ret void
}