; Function Attrs: nounwind uwtable
define void @qasm_recordCompactUnitary(ptr noundef readonly byval(%struct.Qureg) align 8 captures(none) %0, double %1, double %2, double %3, double %4, i32 noundef %5) local_unnamed_addr #0 {
  %7 = alloca double, align 8
  %8 = alloca double, align 8
  %9 = alloca double, align 8
  %10 = alloca [3 x double], align 16
  %11 = getelementptr inbounds nuw i8, ptr %0, i64 128
  %12 = load ptr, ptr %11, align 8, !tbaa !4
  %13 = getelementptr inbounds nuw i8, ptr %12, i64 16
  %14 = load i32, ptr %13, align 8, !tbaa !14
  %.not = icmp eq i32 %14, 0
  br i1 %.not, label %21, label %15

15:                                               ; preds = %6
  call void @llvm.lifetime.start.p0(i64 8, ptr nonnull %7) #16
  call void @llvm.lifetime.start.p0(i64 8, ptr nonnull %8) #16
  call void @llvm.lifetime.start.p0(i64 8, ptr nonnull %9) #16
  call void @getZYZRotAnglesFromComplexPair(double %1, double %2, double %3, double %4, ptr noundef nonnull %7, ptr noundef nonnull %8, ptr noundef nonnull %9) #16
  call void @llvm.lifetime.start.p0(i64 24, ptr nonnull %10) #16
  %16 = load double, ptr %7, align 8, !tbaa !22
  store double %16, ptr %10, align 16, !tbaa !22
  %17 = getelementptr inbounds nuw i8, ptr %10, i64 8
  %18 = load double, ptr %8, align 8, !tbaa !22
  store double %18, ptr %17, align 8, !tbaa !22
  %19 = getelementptr inbounds nuw i8, ptr %10, i64 16
  %20 = load double, ptr %9, align 8, !tbaa !22
  store double %20, ptr %19, align 16, !tbaa !22
  call void @addGateToQASM(ptr noundef nonnull byval(%struct.Qureg) align 8 %0, i32 noundef 10, ptr noundef null, i32 noundef 0, i32 noundef %5, ptr noundef nonnull %10, i32 noundef 3)
  call void @llvm.lifetime.end.p0(i64 24, ptr nonnull %10) #16
  call void @llvm.lifetime.end.p0(i64 8, ptr nonnull %9) #16
  call void @llvm.lifetime.end.p0(i64 8, ptr nonnull %8) #16
  call void @llvm.lifetime.end.p0(i64 8, ptr nonnull %7) #16
  br label %21

21:                                               ; preds = %6, %15
  ret void
}